; Function Attrs: nounwind uwtable
define range(i32 0, 2) i32 @Abc_NtkToAig(ptr noundef %0) local_unnamed_addr #2 {
  %2 = getelementptr i8, ptr %0, i64 4
  %.val15 = load i32, ptr %2, align 4, !tbaa !46
  switch i32 %.val15, label %.fold.split [
    i32 6, label %12
    i32 3, label %12
    i32 4, label %3
    i32 2, label %6
    i32 1, label %10
  ]

3:                                                ; preds = %1
  %4 = tail call i32 @Abc_NtkMapToSop(ptr noundef nonnull %0)
  %5 = tail call i32 @Abc_NtkSopToAig(ptr noundef nonnull %0)
  br label %12

6:                                                ; preds = %1
  %7 = tail call i32 @Abc_NtkBddToSop(ptr noundef nonnull %0, i32 noundef -1, i32 noundef 1000000000, i32 noundef 1)
  %.not14 = icmp eq i32 %7, 0
  br i1 %.not14, label %12, label %8

8:                                                ; preds = %6
  %9 = tail call i32 @Abc_NtkSopToAig(ptr noundef nonnull %0)
  br label %12

10:                                               ; preds = %1
  %11 = tail call i32 @Abc_NtkSopToAig(ptr noundef nonnull %0)
  br label %12

.fold.split:                                      ; preds = %1
  br label %12

12:                                               ; preds = %1, %1, %.fold.split, %6, %10, %8, %3
  %.0 = phi i32 [ %5, %3 ], [ %9, %8 ], [ %11, %10 ], [ 1, %1 ], [ 0, %6 ], [ 1, %1 ], [ 0, %.fold.split ]
  ret i32 %.0
}